(dp1
S'1'
I28
sS'0'
I29
sS'3'
I33
sS'2'
I30
sS'5'
I31
sS'4'
I34
sS'7'
I36
sS'6'
I32
sS'9'
I35
sS'8'
I37
sS'a'
I5
sS'c'
I11
sS'b'
I18
sS'e'
I2
sS'd'
I12
sS'g'
I14
sS'f'
I20
sS'i'
I4
sS'h'
I17
sS'k'
I21
sS'j'
I26
sS'm'
I16
sS'l'
I10
sS'o'
I9
sS'n'
I7
sS'q'
I27
sS'p'
I15
sS's'
I3
sS'r'
I6
sS'u'
I13
sS't'
I8
sS'w'
I23
sS'v'
I22
sS'y'
I19
sS'x'
I25
sS'z'
I24
s.