(dp1
S'lrate'
p2
F0.01
sS'data_path'
p3
S'data'
p4
sS'decay_c'
p5
F0
sS'patience'
p6
I15
sS'save_per_epoch'
p7
I00
sS'n_layers_init'
p8
I2
sS'RL_sumCost'
p9
I01
sS'max_epochs'
p10
I5000
sS'dispFreq'
p11
I1
sS'attn_type'
p12
S'deterministic'
p13
sS'alpha_c'
p14
F1
sS'temperature'
p15
F1
sS'n_layers_att'
p16
I2
sS'saveto'
p17
S'synthText_deterministic_model.exp9.npz'
p18
sS'ctx_dim'
p19
I512
sS'valid_batch_size'
p20
I512
sS'lstm_encoder'
p21
I00
sS'n_layers_lstm'
p22
I1
sS'optimizer'
p23
S'adam'
p24
sS'validFreq'
p25
I5000
sS'dictionary'
p26
NsS'batch_size'
p27
I512
sS'selector'
p28
I01
sS'n_words'
p29
I38
sS'dataset'
p30
S'synthTextBigDB'
p31
sS'use_dropout_lstm'
p32
I00
sS'prev2out'
p33
I01
sS'dim'
p34
I1800
sS'use_dropout'
p35
I01
sS'dim_word'
p36
I512
sS'sampleFreq'
p37
I5000
sS'semi_sampling_p'
p38
F0.5
sS'n_layers_out'
p39
I1
sS'saveFreq'
p40
I5000
sS'maxlen'
p41
I100
sS'alpha_entropy_c'
p42
F0.002
sS'ctx2out'
p43
I01
sS'reload_'
p44
I00
s.